target datalayout = "e-m:e-p270:32:32-p271:32:32-p272:64:64-i64:64-i128:128-f80:128-n8:16:32:64-S128"
target triple = "x86_64-pc-linux-gnu"

%struct.conversation = type { ptr, ptr, ptr, i32, i32, i32, ptr, ptr, i32, ptr }

; Function Attrs: null_pointer_is_valid sspstrong uwtable
define internal void @conversation_insert_into_hashtable(ptr noundef %0, ptr noundef %1) #0 {
  %3 = alloca ptr, align 8
  %4 = alloca ptr, align 8
  %5 = alloca ptr, align 8
  %6 = alloca ptr, align 8
  %7 = alloca ptr, align 8
  %8 = alloca ptr, align 8
  store ptr %0, ptr %3, align 8
  store ptr %1, ptr %4, align 8
  call void @llvm.lifetime.start.p0(i64 8, ptr %5) #12
  call void @llvm.lifetime.start.p0(i64 8, ptr %6) #12
  call void @llvm.lifetime.start.p0(i64 8, ptr %7) #12
  call void @llvm.lifetime.start.p0(i64 8, ptr %8) #12
  %9 = load ptr, ptr %3, align 8
  %10 = load ptr, ptr %4, align 8
  %11 = getelementptr inbounds nuw %struct.conversation, ptr %10, i32 0, i32 9
  %12 = load ptr, ptr %11, align 8
  %13 = call ptr @wmem_map_lookup(ptr noundef %9, ptr noundef %12)
  store ptr %13, ptr %5, align 8
  %14 = load ptr, ptr %5, align 8
  %15 = icmp eq ptr null, %14
  br i1 %15, label %16, label %28

16:                                               ; preds = %2
  %17 = load ptr, ptr %4, align 8
  %18 = getelementptr inbounds nuw %struct.conversation, ptr %17, i32 0, i32 0
  store ptr null, ptr %18, align 8
  %19 = load ptr, ptr %4, align 8
  %20 = load ptr, ptr %4, align 8
  %21 = getelementptr inbounds nuw %struct.conversation, ptr %20, i32 0, i32 1
  store ptr %19, ptr %21, align 8
  %22 = load ptr, ptr %3, align 8
  %23 = load ptr, ptr %4, align 8
  %24 = getelementptr inbounds nuw %struct.conversation, ptr %23, i32 0, i32 9
  %25 = load ptr, ptr %24, align 8
  %26 = load ptr, ptr %4, align 8
  %27 = call ptr @wmem_map_insert(ptr noundef %22, ptr noundef %25, ptr noundef %26)
  br label %102

28:                                               ; preds = %2
  %29 = load ptr, ptr %5, align 8
  %30 = getelementptr inbounds nuw %struct.conversation, ptr %29, i32 0, i32 1
  %31 = load ptr, ptr %30, align 8
  store ptr %31, ptr %6, align 8
  %32 = load ptr, ptr %4, align 8
  %33 = getelementptr inbounds nuw %struct.conversation, ptr %32, i32 0, i32 4
  %34 = load i32, ptr %33, align 4
  %35 = load ptr, ptr %6, align 8
  %36 = getelementptr inbounds nuw %struct.conversation, ptr %35, i32 0, i32 4
  %37 = load i32, ptr %36, align 4
  %38 = icmp uge i32 %34, %37
  br i1 %38, label %39, label %50

39:                                               ; preds = %28
  %40 = load ptr, ptr %4, align 8
  %41 = getelementptr inbounds nuw %struct.conversation, ptr %40, i32 0, i32 0
  store ptr null, ptr %41, align 8
  %42 = load ptr, ptr %4, align 8
  %43 = getelementptr inbounds nuw %struct.conversation, ptr %42, i32 0, i32 1
  store ptr null, ptr %43, align 8
  %44 = load ptr, ptr %4, align 8
  %45 = load ptr, ptr %6, align 8
  %46 = getelementptr inbounds nuw %struct.conversation, ptr %45, i32 0, i32 0
  store ptr %44, ptr %46, align 8
  %47 = load ptr, ptr %4, align 8
  %48 = load ptr, ptr %5, align 8
  %49 = getelementptr inbounds nuw %struct.conversation, ptr %48, i32 0, i32 1
  store ptr %47, ptr %49, align 8
  br label %101

50:                                               ; preds = %28
  %51 = load ptr, ptr %5, align 8
  store ptr %51, ptr %7, align 8
  store ptr null, ptr %8, align 8
  br label %52

52:                                               ; preds = %68, %50
  %53 = load ptr, ptr %4, align 8
  %54 = getelementptr inbounds nuw %struct.conversation, ptr %53, i32 0, i32 4
  %55 = load i32, ptr %54, align 4
  %56 = load ptr, ptr %7, align 8
  %57 = getelementptr inbounds nuw %struct.conversation, ptr %56, i32 0, i32 4
  %58 = load i32, ptr %57, align 4
  %59 = icmp ugt i32 %55, %58
  br i1 %59, label %60, label %65

60:                                               ; preds = %52
  %61 = load ptr, ptr %7, align 8
  %62 = getelementptr inbounds nuw %struct.conversation, ptr %61, i32 0, i32 0
  %63 = load ptr, ptr %62, align 8
  %64 = icmp ne ptr %63, null
  br label %65

65:                                               ; preds = %60, %52
  %66 = phi i1 [ false, %52 ], [ %64, %60 ]
  br i1 %66, label %67, label %73

67:                                               ; preds = %65
  br label %68

68:                                               ; preds = %67
  %69 = load ptr, ptr %7, align 8
  store ptr %69, ptr %8, align 8
  %70 = load ptr, ptr %7, align 8
  %71 = getelementptr inbounds nuw %struct.conversation, ptr %70, i32 0, i32 0
  %72 = load ptr, ptr %71, align 8
  store ptr %72, ptr %7, align 8
  br label %52, !llvm.loop !10

73:                                               ; preds = %65
  %74 = load ptr, ptr %8, align 8
  %75 = icmp eq ptr null, %74
  br i1 %75, label %76, label %91

76:                                               ; preds = %73
  %77 = load ptr, ptr %5, align 8
  %78 = load ptr, ptr %4, align 8
  %79 = getelementptr inbounds nuw %struct.conversation, ptr %78, i32 0, i32 0
  store ptr %77, ptr %79, align 8
  %80 = load ptr, ptr %6, align 8
  %81 = load ptr, ptr %4, align 8
  %82 = getelementptr inbounds nuw %struct.conversation, ptr %81, i32 0, i32 1
  store ptr %80, ptr %82, align 8
  %83 = load ptr, ptr %5, align 8
  %84 = getelementptr inbounds nuw %struct.conversation, ptr %83, i32 0, i32 1
  store ptr null, ptr %84, align 8
  %85 = load ptr, ptr %3, align 8
  %86 = load ptr, ptr %4, align 8
  %87 = getelementptr inbounds nuw %struct.conversation, ptr %86, i32 0, i32 9
  %88 = load ptr, ptr %87, align 8
  %89 = load ptr, ptr %4, align 8
  %90 = call ptr @wmem_map_insert(ptr noundef %85, ptr noundef %88, ptr noundef %89)
  br label %100

91:                                               ; preds = %73
  %92 = load ptr, ptr %7, align 8
  %93 = load ptr, ptr %4, align 8
  %94 = getelementptr inbounds nuw %struct.conversation, ptr %93, i32 0, i32 0
  store ptr %92, ptr %94, align 8
  %95 = load ptr, ptr %4, align 8
  %96 = getelementptr inbounds nuw %struct.conversation, ptr %95, i32 0, i32 1
  store ptr null, ptr %96, align 8
  %97 = load ptr, ptr %4, align 8
  %98 = load ptr, ptr %8, align 8
  %99 = getelementptr inbounds nuw %struct.conversation, ptr %98, i32 0, i32 0
  store ptr %97, ptr %99, align 8
  br label %100

100:                                              ; preds = %91, %76
  br label %101

101:                                              ; preds = %100, %39
  br label %102

102:                                              ; preds = %101, %16
  call void @llvm.lifetime.end.p0(i64 8, ptr %8) #12
  call void @llvm.lifetime.end.p0(i64 8, ptr %7) #12
  call void @llvm.lifetime.end.p0(i64 8, ptr %6) #12
  call void @llvm.lifetime.end.p0(i64 8, ptr %5) #12
  ret void
}