; Function Attrs: null_pointer_is_valid sspstrong uwtable
define internal fastcc void @conversation_insert_into_hashtable(ptr noundef %0, ptr noundef %1) unnamed_addr #0 {
  %3 = getelementptr inbounds nuw i8, ptr %1, i64 64
  %4 = load ptr, ptr %3, align 8
  %5 = tail call ptr @wmem_map_lookup(ptr noundef %0, ptr noundef %4)
  %6 = icmp eq ptr %5, null
  br i1 %6, label %7, label %11

7:                                                ; preds = %2
  store ptr null, ptr %1, align 8
  %8 = getelementptr inbounds nuw i8, ptr %1, i64 8
  store ptr %1, ptr %8, align 8
  %9 = load ptr, ptr %3, align 8
  %10 = tail call ptr @wmem_map_insert(ptr noundef %0, ptr noundef %9, ptr noundef %1)
  br label %33

11:                                               ; preds = %2
  %12 = getelementptr inbounds nuw i8, ptr %5, i64 8
  %13 = load ptr, ptr %12, align 8
  %14 = getelementptr inbounds nuw i8, ptr %1, i64 28
  %15 = load i32, ptr %14, align 4
  %16 = getelementptr inbounds nuw i8, ptr %13, i64 28
  %17 = load i32, ptr %16, align 4
  %.not = icmp ult i32 %15, %17
  br i1 %.not, label %.preheader, label %22

.preheader:                                       ; preds = %11
  %18 = getelementptr inbounds nuw i8, ptr %5, i64 28
  %19 = load i32, ptr %18, align 4
  %20 = icmp ugt i32 %15, %19
  br i1 %20, label %.lr.ph.preheader, label %.critedge.thread

.lr.ph.preheader:                                 ; preds = %.preheader
  %21 = load ptr, ptr %5, align 8
  %.not4161 = icmp eq ptr %21, null
  br i1 %.not4161, label %.critedge, label %.lr.ph63, !llvm.loop !11

22:                                               ; preds = %11
  tail call void @llvm.memset.p0.i64(ptr noundef align 8 dereferenceable(16) %1, i8 0, i64 16, i1 false)
  store ptr %1, ptr %13, align 8
  store ptr %1, ptr %12, align 8
  br label %33

.lr.ph63:                                         ; preds = %.lr.ph.preheader, %.lr.ph
  %23 = phi ptr [ %27, %.lr.ph ], [ %21, %.lr.ph.preheader ]
  %.0384262 = phi ptr [ %23, %.lr.ph ], [ %5, %.lr.ph.preheader ]
  %24 = getelementptr inbounds nuw i8, ptr %23, i64 28
  %25 = load i32, ptr %24, align 4
  %26 = icmp ugt i32 %15, %25
  br i1 %26, label %.lr.ph, label %.critedge.thread50, !llvm.loop !11

.lr.ph:                                           ; preds = %.lr.ph63
  %27 = load ptr, ptr %23, align 8
  %.not41 = icmp eq ptr %27, null
  br i1 %.not41, label %.critedge, label %.lr.ph63, !llvm.loop !11

.critedge:                                        ; preds = %.lr.ph, %.lr.ph.preheader
  %.043.lcssa = phi ptr [ null, %.lr.ph.preheader ], [ %.0384262, %.lr.ph ]
  %.03842.lcssa = phi ptr [ %5, %.lr.ph.preheader ], [ %23, %.lr.ph ]
  %28 = icmp eq ptr %.043.lcssa, null
  br i1 %28, label %.critedge.thread, label %.critedge.thread50

.critedge.thread:                                 ; preds = %.preheader, %.critedge
  store ptr %5, ptr %1, align 8
  %29 = getelementptr inbounds nuw i8, ptr %1, i64 8
  store ptr %13, ptr %29, align 8
  store ptr null, ptr %12, align 8
  %30 = load ptr, ptr %3, align 8
  %31 = tail call ptr @wmem_map_insert(ptr noundef %0, ptr noundef %30, ptr noundef %1)
  br label %33

.critedge.thread50:                               ; preds = %.lr.ph63, %.critedge
  %.0.lcssa54 = phi ptr [ %.043.lcssa, %.critedge ], [ %.0384262, %.lr.ph63 ]
  %.038.lcssa53 = phi ptr [ %.03842.lcssa, %.critedge ], [ %23, %.lr.ph63 ]
  store ptr %.038.lcssa53, ptr %1, align 8
  %32 = getelementptr inbounds nuw i8, ptr %1, i64 8
  store ptr null, ptr %32, align 8
  store ptr %1, ptr %.0.lcssa54, align 8
  br label %33

33:                                               ; preds = %22, %.critedge.thread50, %.critedge.thread, %7
  ret void
}